; Function Attrs: mustprogress nofree norecurse nosync nounwind willreturn memory(argmem: write) uwtable
define void @_ZN2cv10TrackerMIL6ParamsC2Ev(ptr noundef nonnull writeonly align 4 captures(none) dereferenceable(28) initializes((0, 28)) %0) unnamed_addr #0 align 2 {
  store float 3.000000e+00, ptr %0, align 4, !tbaa !265
  %2 = getelementptr inbounds nuw i8, ptr %0, i64 8
  store float 2.500000e+01, ptr %2, align 4, !tbaa !266
  %3 = getelementptr inbounds nuw i8, ptr %0, i64 4
  store i32 65, ptr %3, align 4, !tbaa !267
  %4 = getelementptr inbounds nuw i8, ptr %0, i64 12
  store float 4.000000e+00, ptr %4, align 4, !tbaa !268
  %5 = getelementptr inbounds nuw i8, ptr %0, i64 16
  store i32 100000, ptr %5, align 4, !tbaa !269
  %6 = getelementptr inbounds nuw i8, ptr %0, i64 20
  store i32 65, ptr %6, align 4, !tbaa !270
  %7 = getelementptr inbounds nuw i8, ptr %0, i64 24
  store i32 250, ptr %7, align 4, !tbaa !271
  ret void
}